target datalayout = "e-m:e-p270:32:32-p271:32:32-p272:64:64-i64:64-i128:128-f80:128-n8:16:32:64-S128"
target triple = "x86_64-pc-linux-gnu"

%"class.cv::(anonymous namespace)::GSafePtr.1" = type { ptr }

; Function Attrs: inlinehint mustprogress uwtable
define internal void @_ZL14gst_caps_unrefP8_GstCaps(ptr noundef %0) #11 {
  %2 = alloca ptr, align 8
  store ptr %0, ptr %2, align 8, !tbaa !147
  %3 = load ptr, ptr %2, align 8, !tbaa !147
  call void @gst_mini_object_unref(ptr noundef %3)
  ret void
}

; Function Attrs: inlinehint mustprogress uwtable
define internal void @_ZN2cv12_GLOBAL__N_116GSafePtr_releaseI8_GstCapsEEvPPT_(ptr noundef %0) #11 {
  %2 = alloca ptr, align 8
  store ptr %0, ptr %2, align 8, !tbaa !631
  %3 = load ptr, ptr %2, align 8, !tbaa !631
  %4 = icmp ne ptr %3, null
  br i1 %4, label %5, label %9

5:                                                ; preds = %1
  %6 = load ptr, ptr %2, align 8, !tbaa !631
  %7 = load ptr, ptr %6, align 8, !tbaa !147
  call void @_ZL14gst_caps_unrefP8_GstCaps(ptr noundef %7)
  %8 = load ptr, ptr %2, align 8, !tbaa !631
  store ptr null, ptr %8, align 8, !tbaa !147
  br label %9

9:                                                ; preds = %5, %1
  ret void
}

; Function Attrs: inlinehint mustprogress nounwind uwtable
define internal void @_ZN2cv12_GLOBAL__N_18GSafePtrI8_GstCapsE7releaseEv(ptr noundef nonnull align 8 dereferenceable(8) %0) #5 align 2 personality ptr @__gxx_personality_v0 {
  %2 = alloca ptr, align 8
  store ptr %0, ptr %2, align 8, !tbaa !84
  %3 = load ptr, ptr %2, align 8
  %4 = getelementptr inbounds nuw %"class.cv::(anonymous namespace)::GSafePtr.1", ptr %3, i32 0, i32 0
  %5 = load ptr, ptr %4, align 8, !tbaa !86
  %6 = icmp ne ptr %5, null
  br i1 %6, label %7, label %10

7:                                                ; preds = %1
  %8 = getelementptr inbounds nuw %"class.cv::(anonymous namespace)::GSafePtr.1", ptr %3, i32 0, i32 0
  invoke void @_ZN2cv12_GLOBAL__N_116GSafePtr_releaseI8_GstCapsEEvPPT_(ptr noundef %8)
          to label %9 unwind label %11

9:                                                ; preds = %7
  br label %10

10:                                               ; preds = %9, %1
  ret void

11:                                               ; preds = %7
  %12 = landingpad { ptr, i32 }
          catch ptr null
  %13 = extractvalue { ptr, i32 } %12, 0
  call void @__clang_call_terminate(ptr %13) #27
  unreachable
}

; Function Attrs: inlinehint mustprogress nounwind uwtable
define internal noundef nonnull align 8 dereferenceable(8) ptr @_ZN2cv12_GLOBAL__N_18GSafePtrI8_GstCapsE6attachEPS2_(ptr noundef nonnull align 8 dereferenceable(8) %0, ptr noundef %1) #5 align 2 {
  %3 = alloca ptr, align 8
  %4 = alloca ptr, align 8
  store ptr %0, ptr %3, align 8, !tbaa !84
  store ptr %1, ptr %4, align 8, !tbaa !147
  %5 = load ptr, ptr %3, align 8
  call void @_ZN2cv12_GLOBAL__N_18GSafePtrI8_GstCapsE7releaseEv(ptr noundef nonnull align 8 dereferenceable(8) %5) #3
  %6 = load ptr, ptr %4, align 8, !tbaa !147
  %7 = getelementptr inbounds nuw %"class.cv::(anonymous namespace)::GSafePtr.1", ptr %5, i32 0, i32 0
  store ptr %6, ptr %7, align 8, !tbaa !86
  ret ptr %5
}